target datalayout = "e-m:e-p270:32:32-p271:32:32-p272:64:64-i64:64-i128:128-f80:128-n8:16:32:64-S128"
target triple = "x86_64-pc-linux-gnu"

%"class.llvm::SmallVectorBase" = type { ptr, i32, i32 }
%"class.llvm::SmallPtrSetImplBase.base" = type <{ ptr, ptr, i32, i32, i32 }>
%"class.llvm::DominatorTreeBase" = type <{ %"class.llvm::SmallVector.11", %"class.llvm::SmallVector.16", [8 x i8], ptr, ptr, i8, [3 x i8], i32, i32, [4 x i8] }>
%"class.llvm::SmallVector.11" = type { %"class.llvm::SmallVectorImpl.12", %"struct.llvm::SmallVectorStorage.15" }
%"class.llvm::SmallVectorImpl.12" = type { %"class.llvm::SmallVectorTemplateBase.13" }
%"class.llvm::SmallVectorTemplateBase.13" = type { %"class.llvm::SmallVectorTemplateCommon.14" }
%"class.llvm::SmallVectorTemplateCommon.14" = type { %"class.llvm::SmallVectorBase" }
%"struct.llvm::SmallVectorStorage.15" = type { [8 x i8] }
%"class.llvm::SmallVector.16" = type { %"class.llvm::SmallVectorImpl.17", %"struct.llvm::SmallVectorStorage.20" }
%"class.llvm::SmallVectorImpl.17" = type { %"class.llvm::SmallVectorTemplateBase.18" }
%"class.llvm::SmallVectorTemplateBase.18" = type { %"class.llvm::SmallVectorTemplateCommon.19" }
%"class.llvm::SmallVectorTemplateCommon.19" = type { %"class.llvm::SmallVectorBase" }
%"struct.llvm::SmallVectorStorage.20" = type { [48 x i8] }
%"class.llvm::MachineDominatorTree" = type { %"class.llvm::DominatorTreeBase.base", %"class.llvm::SmallVector.177", %"class.llvm::SmallSet" }
%"class.llvm::DominatorTreeBase.base" = type <{ %"class.llvm::SmallVector.11", %"class.llvm::SmallVector.16", [8 x i8], ptr, ptr, i8, [3 x i8], i32, i32 }>
%"class.llvm::SmallVector.177" = type { %"class.llvm::SmallVectorImpl.178", %"struct.llvm::SmallVectorStorage.181" }
%"class.llvm::SmallVectorImpl.178" = type { %"class.llvm::SmallVectorTemplateBase.179" }
%"class.llvm::SmallVectorTemplateBase.179" = type { %"class.llvm::SmallVectorTemplateCommon.180" }
%"class.llvm::SmallVectorTemplateCommon.180" = type { %"class.llvm::SmallVectorBase" }
%"struct.llvm::SmallVectorStorage.181" = type { [768 x i8] }
%"class.llvm::SmallSet" = type { %"class.llvm::SmallPtrSet.182" }
%"class.llvm::SmallPtrSet.182" = type { %"class.llvm::SmallPtrSetImpl.base.184", [32 x ptr] }
%"class.llvm::SmallPtrSetImpl.base.184" = type { %"class.llvm::SmallPtrSetImplBase.base" }
%"class.llvm::MachineFunctionProperties" = type { %"class.std::bitset" }
%"class.std::bitset" = type { %"struct.std::_Base_bitset" }
%"struct.std::_Base_bitset" = type { i64 }
%"class.llvm::SmallPtrSetImplBase" = type <{ ptr, ptr, i32, i32, i32, [4 x i8] }>
%"struct.llvm::MachineDominatorTree::CriticalEdge" = type { ptr, ptr, ptr }
%"class.llvm::ilist_node_impl" = type { %"class.llvm::ilist_node_base" }
%"class.llvm::ilist_node_base" = type { %"class.llvm::ilist_detail::node_base_prevnext" }
%"class.llvm::ilist_detail::node_base_prevnext" = type { ptr, ptr }
%"struct.llvm::Align" = type { i8 }
%"class.llvm::MachineFunction" = type <{ ptr, ptr, ptr, ptr, ptr, ptr, ptr, ptr, ptr, ptr, ptr, ptr, %"class.std::vector.74", i32, [4 x i8], %"class.llvm::BumpPtrAllocatorImpl", %"class.llvm::Recycler", %"class.llvm::ArrayRecycler", %"class.llvm::Recycler.95", %"class.llvm::iplist.96", i32, %"struct.llvm::Align", i8, i8, i8, %"class.llvm::MachineFunctionProperties", %"class.std::unique_ptr.103", %"class.std::vector.111", %"class.std::vector.116", %"class.std::vector.116", %"class.std::vector.121", %"class.llvm::DenseMap", %"class.llvm::DenseMap.127", %"class.llvm::DenseMap.130", %"class.std::vector.133", i8, i8, i8, i8, i8, i8, [2 x i8], i32, i32, %"class.std::vector.138", %"class.std::vector.143", %"class.std::vector.143", i32, [4 x i8], ptr, ptr, %"class.llvm::DenseMap.148", %"class.llvm::SmallVector.151", i32, [4 x i8], %"class.llvm::SmallVector.156", %"class.llvm::DenseMap.161", i8, [7 x i8] }>
%"class.std::vector.74" = type { %"struct.std::_Vector_base.75" }
%"struct.std::_Vector_base.75" = type { %"struct.std::_Vector_base<llvm::MachineBasicBlock *, std::allocator<llvm::MachineBasicBlock *>>::_Vector_impl" }
%"struct.std::_Vector_base<llvm::MachineBasicBlock *, std::allocator<llvm::MachineBasicBlock *>>::_Vector_impl" = type { %"struct.std::_Vector_base<llvm::MachineBasicBlock *, std::allocator<llvm::MachineBasicBlock *>>::_Vector_impl_data" }
%"struct.std::_Vector_base<llvm::MachineBasicBlock *, std::allocator<llvm::MachineBasicBlock *>>::_Vector_impl_data" = type { ptr, ptr, ptr }
%"class.llvm::BumpPtrAllocatorImpl" = type { ptr, ptr, %"class.llvm::SmallVector.80", %"class.llvm::SmallVector.85", i64, i64 }
%"class.llvm::SmallVector.80" = type { %"class.llvm::SmallVectorImpl.81", %"struct.llvm::SmallVectorStorage.84" }
%"class.llvm::SmallVectorImpl.81" = type { %"class.llvm::SmallVectorTemplateBase.82" }
%"class.llvm::SmallVectorTemplateBase.82" = type { %"class.llvm::SmallVectorTemplateCommon.83" }
%"class.llvm::SmallVectorTemplateCommon.83" = type { %"class.llvm::SmallVectorBase" }
%"struct.llvm::SmallVectorStorage.84" = type { [32 x i8] }
%"class.llvm::SmallVector.85" = type { %"class.llvm::SmallVectorImpl.86" }
%"class.llvm::SmallVectorImpl.86" = type { %"class.llvm::SmallVectorTemplateBase.87" }
%"class.llvm::SmallVectorTemplateBase.87" = type { %"class.llvm::SmallVectorTemplateCommon.88" }
%"class.llvm::SmallVectorTemplateCommon.88" = type { %"class.llvm::SmallVectorBase" }
%"class.llvm::Recycler" = type { ptr }
%"class.llvm::ArrayRecycler" = type { %"class.llvm::SmallVector.90" }
%"class.llvm::SmallVector.90" = type { %"class.llvm::SmallVectorImpl.91", %"struct.llvm::SmallVectorStorage.94" }
%"class.llvm::SmallVectorImpl.91" = type { %"class.llvm::SmallVectorTemplateBase.92" }
%"class.llvm::SmallVectorTemplateBase.92" = type { %"class.llvm::SmallVectorTemplateCommon.93" }
%"class.llvm::SmallVectorTemplateCommon.93" = type { %"class.llvm::SmallVectorBase" }
%"struct.llvm::SmallVectorStorage.94" = type { [64 x i8] }
%"class.llvm::Recycler.95" = type { ptr }
%"class.llvm::iplist.96" = type { %"class.llvm::iplist_impl.97" }
%"class.llvm::iplist_impl.97" = type { %"class.llvm::simple_ilist.99" }
%"class.llvm::simple_ilist.99" = type { %"class.llvm::ilist_sentinel.102" }
%"class.llvm::ilist_sentinel.102" = type { %"class.llvm::ilist_node_impl" }
%"class.std::unique_ptr.103" = type { %"struct.std::__uniq_ptr_data.104" }
%"struct.std::__uniq_ptr_data.104" = type { %"class.std::__uniq_ptr_impl.105" }
%"class.std::__uniq_ptr_impl.105" = type { %"class.std::tuple.106" }
%"class.std::tuple.106" = type { %"struct.std::_Tuple_impl.107" }
%"struct.std::_Tuple_impl.107" = type { %"struct.std::_Head_base.110" }
%"struct.std::_Head_base.110" = type { ptr }
%"class.std::vector.111" = type { %"struct.std::_Vector_base.112" }
%"struct.std::_Vector_base.112" = type { %"struct.std::_Vector_base<llvm::MCCFIInstruction, std::allocator<llvm::MCCFIInstruction>>::_Vector_impl" }
%"struct.std::_Vector_base<llvm::MCCFIInstruction, std::allocator<llvm::MCCFIInstruction>>::_Vector_impl" = type { %"struct.std::_Vector_base<llvm::MCCFIInstruction, std::allocator<llvm::MCCFIInstruction>>::_Vector_impl_data" }
%"struct.std::_Vector_base<llvm::MCCFIInstruction, std::allocator<llvm::MCCFIInstruction>>::_Vector_impl_data" = type { ptr, ptr, ptr }
%"class.std::vector.116" = type { %"struct.std::_Vector_base.117" }
%"struct.std::_Vector_base.117" = type { %"struct.std::_Vector_base<llvm::MCSymbol *, std::allocator<llvm::MCSymbol *>>::_Vector_impl" }
%"struct.std::_Vector_base<llvm::MCSymbol *, std::allocator<llvm::MCSymbol *>>::_Vector_impl" = type { %"struct.std::_Vector_base<llvm::MCSymbol *, std::allocator<llvm::MCSymbol *>>::_Vector_impl_data" }
%"struct.std::_Vector_base<llvm::MCSymbol *, std::allocator<llvm::MCSymbol *>>::_Vector_impl_data" = type { ptr, ptr, ptr }
%"class.std::vector.121" = type { %"struct.std::_Vector_base.122" }
%"struct.std::_Vector_base.122" = type { %"struct.std::_Vector_base<llvm::LandingPadInfo, std::allocator<llvm::LandingPadInfo>>::_Vector_impl" }
%"struct.std::_Vector_base<llvm::LandingPadInfo, std::allocator<llvm::LandingPadInfo>>::_Vector_impl" = type { %"struct.std::_Vector_base<llvm::LandingPadInfo, std::allocator<llvm::LandingPadInfo>>::_Vector_impl_data" }
%"struct.std::_Vector_base<llvm::LandingPadInfo, std::allocator<llvm::LandingPadInfo>>::_Vector_impl_data" = type { ptr, ptr, ptr }
%"class.llvm::DenseMap" = type <{ ptr, i32, i32, i32, [4 x i8] }>
%"class.llvm::DenseMap.127" = type <{ ptr, i32, i32, i32, [4 x i8] }>
%"class.llvm::DenseMap.130" = type <{ ptr, i32, i32, i32, [4 x i8] }>
%"class.std::vector.133" = type { %"struct.std::_Vector_base.134" }
%"struct.std::_Vector_base.134" = type { %"struct.std::_Vector_base<std::pair<llvm::MCSymbol *, llvm::MDNode *>, std::allocator<std::pair<llvm::MCSymbol *, llvm::MDNode *>>>::_Vector_impl" }
%"struct.std::_Vector_base<std::pair<llvm::MCSymbol *, llvm::MDNode *>, std::allocator<std::pair<llvm::MCSymbol *, llvm::MDNode *>>>::_Vector_impl" = type { %"struct.std::_Vector_base<std::pair<llvm::MCSymbol *, llvm::MDNode *>, std::allocator<std::pair<llvm::MCSymbol *, llvm::MDNode *>>>::_Vector_impl_data" }
%"struct.std::_Vector_base<std::pair<llvm::MCSymbol *, llvm::MDNode *>, std::allocator<std::pair<llvm::MCSymbol *, llvm::MDNode *>>>::_Vector_impl_data" = type { ptr, ptr, ptr }
%"class.std::vector.138" = type { %"struct.std::_Vector_base.139" }
%"struct.std::_Vector_base.139" = type { %"struct.std::_Vector_base<const llvm::GlobalValue *, std::allocator<const llvm::GlobalValue *>>::_Vector_impl" }
%"struct.std::_Vector_base<const llvm::GlobalValue *, std::allocator<const llvm::GlobalValue *>>::_Vector_impl" = type { %"struct.std::_Vector_base<const llvm::GlobalValue *, std::allocator<const llvm::GlobalValue *>>::_Vector_impl_data" }
%"struct.std::_Vector_base<const llvm::GlobalValue *, std::allocator<const llvm::GlobalValue *>>::_Vector_impl_data" = type { ptr, ptr, ptr }
%"class.std::vector.143" = type { %"struct.std::_Vector_base.144" }
%"struct.std::_Vector_base.144" = type { %"struct.std::_Vector_base<unsigned int, std::allocator<unsigned int>>::_Vector_impl" }
%"struct.std::_Vector_base<unsigned int, std::allocator<unsigned int>>::_Vector_impl" = type { %"struct.std::_Vector_base<unsigned int, std::allocator<unsigned int>>::_Vector_impl_data" }
%"struct.std::_Vector_base<unsigned int, std::allocator<unsigned int>>::_Vector_impl_data" = type { ptr, ptr, ptr }
%"class.llvm::DenseMap.148" = type <{ ptr, i32, i32, i32, [4 x i8] }>
%"class.llvm::SmallVector.151" = type { %"class.llvm::SmallVectorImpl.152", %"struct.llvm::SmallVectorStorage.155" }
%"class.llvm::SmallVectorImpl.152" = type { %"class.llvm::SmallVectorTemplateBase.153" }
%"class.llvm::SmallVectorTemplateBase.153" = type { %"class.llvm::SmallVectorTemplateCommon.154" }
%"class.llvm::SmallVectorTemplateCommon.154" = type { %"class.llvm::SmallVectorBase" }
%"struct.llvm::SmallVectorStorage.155" = type { [128 x i8] }
%"class.llvm::SmallVector.156" = type { %"class.llvm::SmallVectorImpl.157", %"struct.llvm::SmallVectorStorage.160" }
%"class.llvm::SmallVectorImpl.157" = type { %"class.llvm::SmallVectorTemplateBase.158" }
%"class.llvm::SmallVectorTemplateBase.158" = type { %"class.llvm::SmallVectorTemplateCommon.159" }
%"class.llvm::SmallVectorTemplateCommon.159" = type { %"class.llvm::SmallVectorBase" }
%"struct.llvm::SmallVectorStorage.160" = type { [160 x i8] }
%"class.llvm::DenseMap.161" = type <{ ptr, i32, i32, i32, [4 x i8] }>

; Function Attrs: mustprogress nounwind uwtable
define linkonce_odr hidden noundef i32 @_ZNK4llvm15MachineFunction19getBlockNumberEpochEv(ptr noundef nonnull align 8 dereferenceable(1041) %0) #1 comdat align 2 {
  %2 = alloca ptr, align 8
  store ptr %0, ptr %2, align 8
  %3 = load ptr, ptr %2, align 8
  %4 = getelementptr inbounds nuw %"class.llvm::MachineFunction", ptr %3, i32 0, i32 13
  %5 = load i32, ptr %4, align 8
  ret i32 %5
}

; Function Attrs: mustprogress nounwind uwtable
define linkonce_odr hidden noundef i32 @_ZN4llvm11GraphTraitsIPNS_15MachineFunctionEE14getNumberEpochES2_(ptr noundef %0) #1 comdat align 2 {
  %2 = alloca ptr, align 8
  store ptr %0, ptr %2, align 8
  %3 = load ptr, ptr %2, align 8
  %4 = call noundef i32 @_ZNK4llvm15MachineFunction19getBlockNumberEpochEv(ptr noundef nonnull align 8 dereferenceable(1041) %3)
  ret i32 %4
}

; Function Attrs: mustprogress nounwind uwtable
define weak_odr void @_ZN4llvm14DomTreeBuilder9CalculateINS_17DominatorTreeBaseINS_17MachineBasicBlockELb0EEEEEvRT_(ptr noundef nonnull align 8 dereferenceable(124) %0) #1 comdat {
  %2 = alloca ptr, align 8
  store ptr %0, ptr %2, align 8
  %3 = load ptr, ptr %2, align 8
  call void @_ZN4llvm14DomTreeBuilder11SemiNCAInfoINS_17DominatorTreeBaseINS_17MachineBasicBlockELb0EEEE20CalculateFromScratchERS4_PNS5_15BatchUpdateInfoE(ptr noundef nonnull align 8 dereferenceable(124) %3, ptr noundef null)
  ret void
}

; Function Attrs: mustprogress nounwind uwtable
define weak_odr void @_ZN4llvm17DominatorTreeBaseINS_17MachineBasicBlockELb0EE22updateBlockNumberEpochEv(ptr noundef nonnull align 8 dereferenceable(124) %0) #1 comdat align 2 {
  %2 = alloca ptr, align 8
  store ptr %0, ptr %2, align 8
  %3 = load ptr, ptr %2, align 8
  %4 = getelementptr inbounds nuw %"class.llvm::DominatorTreeBase", ptr %3, i32 0, i32 4
  %5 = load ptr, ptr %4, align 8
  %6 = call noundef i32 @_ZN4llvm11GraphTraitsIPNS_15MachineFunctionEE14getNumberEpochES2_(ptr noundef %5)
  %7 = getelementptr inbounds nuw %"class.llvm::DominatorTreeBase", ptr %3, i32 0, i32 8
  store i32 %6, ptr %7, align 8
  ret void
}

; Function Attrs: mustprogress nounwind uwtable
define linkonce_odr hidden noundef i32 @_ZNK4llvm19SmallPtrSetImplBase4sizeEv(ptr noundef nonnull align 8 dereferenceable(28) %0) #1 comdat align 2 {
  %2 = alloca ptr, align 8
  store ptr %0, ptr %2, align 8
  %3 = load ptr, ptr %2, align 8
  %4 = getelementptr inbounds nuw %"class.llvm::SmallPtrSetImplBase", ptr %3, i32 0, i32 3
  %5 = load i32, ptr %4, align 4
  %6 = getelementptr inbounds nuw %"class.llvm::SmallPtrSetImplBase", ptr %3, i32 0, i32 4
  %7 = load i32, ptr %6, align 8
  %8 = sub i32 %5, %7
  ret i32 %8
}

; Function Attrs: mustprogress nounwind uwtable
define linkonce_odr hidden noundef zeroext i1 @_ZNK4llvm19SmallPtrSetImplBase7isSmallEv(ptr noundef nonnull align 8 dereferenceable(28) %0) #1 comdat align 2 {
  %2 = alloca ptr, align 8
  store ptr %0, ptr %2, align 8
  %3 = load ptr, ptr %2, align 8
  %4 = getelementptr inbounds nuw %"class.llvm::SmallPtrSetImplBase", ptr %3, i32 0, i32 1
  %5 = load ptr, ptr %4, align 8
  %6 = getelementptr inbounds nuw %"class.llvm::SmallPtrSetImplBase", ptr %3, i32 0, i32 0
  %7 = load ptr, ptr %6, align 8
  %8 = icmp eq ptr %5, %7
  ret i1 %8
}

; Function Attrs: mustprogress nounwind uwtable
define linkonce_odr hidden void @_ZN4llvm14DebugEpochBase14incrementEpochEv(ptr noundef nonnull align 1 dereferenceable(1) %0) #1 comdat align 2 {
  %2 = alloca ptr, align 8
  store ptr %0, ptr %2, align 8
  ret void
}

; Function Attrs: mustprogress nounwind uwtable
define linkonce_odr hidden void @_ZN4llvm23SmallVectorTemplateBaseINS_20MachineDominatorTree12CriticalEdgeELb1EE13destroy_rangeEPS2_S4_(ptr noundef %0, ptr noundef %1) #1 comdat align 2 {
  %3 = alloca ptr, align 8
  %4 = alloca ptr, align 8
  store ptr %0, ptr %3, align 8
  store ptr %1, ptr %4, align 8
  ret void
}

; Function Attrs: mustprogress nounwind uwtable
define linkonce_odr hidden noundef ptr @_ZN4llvm25SmallVectorTemplateCommonINS_20MachineDominatorTree12CriticalEdgeEvE3endEv(ptr noundef nonnull align 8 dereferenceable(16) %0) #1 comdat align 2 {
  %2 = alloca ptr, align 8
  store ptr %0, ptr %2, align 8
  %3 = load ptr, ptr %2, align 8
  %4 = call noundef ptr @_ZN4llvm25SmallVectorTemplateCommonINS_20MachineDominatorTree12CriticalEdgeEvE5beginEv(ptr noundef nonnull align 8 dereferenceable(16) %3)
  %5 = call noundef i64 @_ZNK4llvm15SmallVectorBaseIjE4sizeEv(ptr noundef nonnull align 8 dereferenceable(16) %3)
  %6 = getelementptr inbounds %"struct.llvm::MachineDominatorTree::CriticalEdge", ptr %4, i64 %5
  ret ptr %6
}

; Function Attrs: mustprogress nounwind uwtable
define linkonce_odr hidden noundef ptr @_ZN4llvm25SmallVectorTemplateCommonINS_20MachineDominatorTree12CriticalEdgeEvE5beginEv(ptr noundef nonnull align 8 dereferenceable(16) %0) #1 comdat align 2 {
  %2 = alloca ptr, align 8
  store ptr %0, ptr %2, align 8
  %3 = load ptr, ptr %2, align 8
  %4 = getelementptr inbounds nuw %"class.llvm::SmallVectorBase", ptr %3, i32 0, i32 0
  %5 = load ptr, ptr %4, align 8
  ret ptr %5
}

; Function Attrs: mustprogress nounwind uwtable
define weak_odr void @_ZN4llvm17DominatorTreeBaseINS_17MachineBasicBlockELb0EE11recalculateERNS_15MachineFunctionE(ptr noundef nonnull align 8 dereferenceable(124) %0, ptr noundef nonnull align 8 dereferenceable(1041) %1) #1 comdat align 2 {
  %3 = alloca ptr, align 8
  %4 = alloca ptr, align 8
  store ptr %0, ptr %3, align 8
  store ptr %1, ptr %4, align 8
  %5 = load ptr, ptr %3, align 8
  %6 = load ptr, ptr %4, align 8
  %7 = getelementptr inbounds nuw %"class.llvm::DominatorTreeBase", ptr %5, i32 0, i32 4
  store ptr %6, ptr %7, align 8
  call void @_ZN4llvm17DominatorTreeBaseINS_17MachineBasicBlockELb0EE22updateBlockNumberEpochEv(ptr noundef nonnull align 8 dereferenceable(124) %5)
  call void @_ZN4llvm14DomTreeBuilder9CalculateINS_17DominatorTreeBaseINS_17MachineBasicBlockELb0EEEEEvRT_(ptr noundef nonnull align 8 dereferenceable(124) %5)
  ret void
}

; Function Attrs: mustprogress nounwind uwtable
define linkonce_odr hidden void @_ZN4llvm19SmallPtrSetImplBase5clearEv(ptr noundef nonnull align 8 dereferenceable(28) %0) #1 comdat align 2 {
  %2 = alloca ptr, align 8
  store ptr %0, ptr %2, align 8
  %3 = load ptr, ptr %2, align 8
  call void @_ZN4llvm14DebugEpochBase14incrementEpochEv(ptr noundef nonnull align 1 dereferenceable(1) %3)
  %4 = call noundef zeroext i1 @_ZNK4llvm19SmallPtrSetImplBase7isSmallEv(ptr noundef nonnull align 8 dereferenceable(28) %3)
  br i1 %4, label %23, label %5

5:                                                ; preds = %1
  %6 = call noundef i32 @_ZNK4llvm19SmallPtrSetImplBase4sizeEv(ptr noundef nonnull align 8 dereferenceable(28) %3)
  %7 = mul i32 %6, 4
  %8 = getelementptr inbounds nuw %"class.llvm::SmallPtrSetImplBase", ptr %3, i32 0, i32 2
  %9 = load i32, ptr %8, align 8
  %10 = icmp ult i32 %7, %9
  br i1 %10, label %11, label %16

11:                                               ; preds = %5
  %12 = getelementptr inbounds nuw %"class.llvm::SmallPtrSetImplBase", ptr %3, i32 0, i32 2
  %13 = load i32, ptr %12, align 8
  %14 = icmp ugt i32 %13, 32
  br i1 %14, label %15, label %16

15:                                               ; preds = %11
  call void @_ZN4llvm19SmallPtrSetImplBase16shrink_and_clearEv(ptr noundef nonnull align 8 dereferenceable(28) %3)
  br label %26

16:                                               ; preds = %11, %5
  %17 = getelementptr inbounds nuw %"class.llvm::SmallPtrSetImplBase", ptr %3, i32 0, i32 1
  %18 = load ptr, ptr %17, align 8
  %19 = getelementptr inbounds nuw %"class.llvm::SmallPtrSetImplBase", ptr %3, i32 0, i32 2
  %20 = load i32, ptr %19, align 8
  %21 = zext i32 %20 to i64
  %22 = mul i64 %21, 8
  call void @llvm.memset.p0.i64(ptr align 8 %18, i8 -1, i64 %22, i1 false)
  br label %23

23:                                               ; preds = %16, %1
  %24 = getelementptr inbounds nuw %"class.llvm::SmallPtrSetImplBase", ptr %3, i32 0, i32 3
  store i32 0, ptr %24, align 4
  %25 = getelementptr inbounds nuw %"class.llvm::SmallPtrSetImplBase", ptr %3, i32 0, i32 4
  store i32 0, ptr %25, align 8
  br label %26

26:                                               ; preds = %23, %15
  ret void
}

; Function Attrs: mustprogress nounwind uwtable
define linkonce_odr hidden void @_ZN4llvm15SmallVectorImplINS_20MachineDominatorTree12CriticalEdgeEE5clearEv(ptr noundef nonnull align 8 dereferenceable(16) %0) #1 comdat align 2 {
  %2 = alloca ptr, align 8
  store ptr %0, ptr %2, align 8
  %3 = load ptr, ptr %2, align 8
  %4 = call noundef ptr @_ZN4llvm25SmallVectorTemplateCommonINS_20MachineDominatorTree12CriticalEdgeEvE5beginEv(ptr noundef nonnull align 8 dereferenceable(16) %3)
  %5 = call noundef ptr @_ZN4llvm25SmallVectorTemplateCommonINS_20MachineDominatorTree12CriticalEdgeEvE3endEv(ptr noundef nonnull align 8 dereferenceable(16) %3)
  call void @_ZN4llvm23SmallVectorTemplateBaseINS_20MachineDominatorTree12CriticalEdgeELb1EE13destroy_rangeEPS2_S4_(ptr noundef %4, ptr noundef %5)
  %6 = getelementptr inbounds nuw %"class.llvm::SmallVectorBase", ptr %3, i32 0, i32 1
  store i32 0, ptr %6, align 8
  ret void
}

; Function Attrs: mustprogress nounwind uwtable
define dso_local void @_ZN4llvm20MachineDominatorTree9calculateERNS_15MachineFunctionE(ptr noundef nonnull align 8 dereferenceable(1200) %0, ptr noundef nonnull align 8 dereferenceable(1041) %1) #1 align 2 {
  %3 = alloca ptr, align 8
  %4 = alloca ptr, align 8
  store ptr %0, ptr %3, align 8
  store ptr %1, ptr %4, align 8
  %5 = load ptr, ptr %3, align 8
  %6 = getelementptr inbounds nuw %"class.llvm::MachineDominatorTree", ptr %5, i32 0, i32 1
  call void @_ZN4llvm15SmallVectorImplINS_20MachineDominatorTree12CriticalEdgeEE5clearEv(ptr noundef nonnull align 8 dereferenceable(16) %6)
  %7 = getelementptr inbounds nuw %"class.llvm::MachineDominatorTree", ptr %5, i32 0, i32 2
  call void @_ZN4llvm19SmallPtrSetImplBase5clearEv(ptr noundef nonnull align 8 dereferenceable(28) %7)
  %8 = load ptr, ptr %4, align 8
  call void @_ZN4llvm17DominatorTreeBaseINS_17MachineBasicBlockELb0EE11recalculateERNS_15MachineFunctionE(ptr noundef nonnull align 8 dereferenceable(124) %5, ptr noundef nonnull align 8 dereferenceable(1041) %8)
  ret void
}