; Function Attrs: mustprogress nounwind uwtable
define dso_local void @_ZN4llvm20MachineDominatorTree9calculateERNS_15MachineFunctionE(ptr noundef nonnull align 8 dereferenceable(1200) %0, ptr noundef nonnull align 8 dereferenceable(1041) %1) local_unnamed_addr #0 align 2 {
  %3 = getelementptr inbounds nuw i8, ptr %0, i64 128
  %4 = tail call noundef i64 @_ZNK4llvm15SmallVectorBaseIjE4sizeEv(ptr noundef nonnull align 8 dereferenceable(16) %3) #17
  %5 = getelementptr inbounds i8, ptr %0, i64 136
  store i32 0, ptr %5, align 8
  %6 = getelementptr inbounds nuw i8, ptr %0, i64 912
  %7 = getelementptr inbounds i8, ptr %0, i64 920
  %8 = load ptr, ptr %7, align 8
  %9 = load ptr, ptr %6, align 8
  %10 = icmp eq ptr %8, %9
  br i1 %10, label %26, label %11

11:                                               ; preds = %2
  %12 = getelementptr inbounds i8, ptr %0, i64 932
  %13 = load i32, ptr %12, align 4
  %14 = getelementptr inbounds i8, ptr %0, i64 936
  %15 = load i32, ptr %14, align 8
  %16 = sub i32 %13, %15
  %17 = shl i32 %16, 2
  %18 = getelementptr inbounds i8, ptr %0, i64 928
  %19 = load i32, ptr %18, align 8
  %20 = icmp ult i32 %17, %19
  %21 = icmp ugt i32 %19, 32
  %or.cond.i = and i1 %21, %20
  br i1 %or.cond.i, label %22, label %23

22:                                               ; preds = %11
  tail call void @_ZN4llvm19SmallPtrSetImplBase16shrink_and_clearEv(ptr noundef nonnull align 8 dereferenceable(28) %6) #17
  br label %_ZN4llvm19SmallPtrSetImplBase5clearEv.exit

23:                                               ; preds = %11
  %24 = zext i32 %19 to i64
  %25 = shl nuw nsw i64 %24, 3
  tail call void @llvm.memset.p0.i64(ptr align 8 %8, i8 -1, i64 %25, i1 false)
  br label %26

26:                                               ; preds = %23, %2
  %27 = getelementptr inbounds i8, ptr %0, i64 932
  store i32 0, ptr %27, align 4
  %28 = getelementptr inbounds i8, ptr %0, i64 936
  store i32 0, ptr %28, align 8
  br label %_ZN4llvm19SmallPtrSetImplBase5clearEv.exit

_ZN4llvm19SmallPtrSetImplBase5clearEv.exit:       ; preds = %22, %26
  %29 = getelementptr inbounds nuw i8, ptr %0, i64 104
  store ptr %1, ptr %29, align 8
  %30 = getelementptr inbounds nuw i8, ptr %1, i64 120
  %31 = load i32, ptr %30, align 8
  %32 = getelementptr inbounds nuw i8, ptr %0, i64 120
  store i32 %31, ptr %32, align 8
  tail call void @_ZN4llvm14DomTreeBuilder11SemiNCAInfoINS_17DominatorTreeBaseINS_17MachineBasicBlockELb0EEEE20CalculateFromScratchERS4_PNS5_15BatchUpdateInfoE(ptr noundef nonnull align 8 dereferenceable(124) %0, ptr noundef null)
  ret void
}